target datalayout = "e-m:e-p270:32:32-p271:32:32-p272:64:64-i64:64-i128:128-f80:128-n8:16:32:64-S128"
target triple = "x86_64-pc-linux-gnu"

%struct.AVChannelLayout = type { i32, i32, %union.anon.1, ptr }
%union.anon.1 = type { i64 }
%struct.AVRational = type { i32, i32 }
%struct.AVFilterContext = type { ptr, ptr, ptr, ptr, ptr, i32, ptr, ptr, i32, ptr, ptr, i32, i32, ptr, ptr, ptr, ptr, i32, ptr, i32, i32 }
%struct.ColorkeyContext = type { ptr, [4 x i8], [4 x i8], float, float, double, i32, i32, ptr }
%struct.AVFrame = type { [8 x ptr], [8 x i32], ptr, i32, i32, i32, i32, i32, %struct.AVRational, i64, i64, %struct.AVRational, i32, ptr, i32, i32, [8 x ptr], ptr, i32, ptr, i32, i32, i32, i32, i32, i32, i32, i64, ptr, i32, ptr, ptr, i64, i64, i64, i64, ptr, %struct.AVChannelLayout, i64 }

; Function Attrs: alwaysinline nounwind willreturn memory(none) uwtable
define internal double @av_clipd_c(double noundef %0, double noundef %1, double noundef %2) #7 {
  %4 = alloca double, align 8
  %5 = alloca double, align 8
  %6 = alloca double, align 8
  store double %0, ptr %4, align 8, !tbaa !69
  store double %1, ptr %5, align 8, !tbaa !69
  store double %2, ptr %6, align 8, !tbaa !69
  %7 = load double, ptr %4, align 8, !tbaa !69
  %8 = load double, ptr %5, align 8, !tbaa !69
  %9 = fcmp nsz ogt double %7, %8
  br i1 %9, label %10, label %12

10:                                               ; preds = %3
  %11 = load double, ptr %4, align 8, !tbaa !69
  br label %14

12:                                               ; preds = %3
  %13 = load double, ptr %5, align 8, !tbaa !69
  br label %14

14:                                               ; preds = %12, %10
  %15 = phi nsz double [ %11, %10 ], [ %13, %12 ]
  %16 = load double, ptr %6, align 8, !tbaa !69
  %17 = fcmp nsz ogt double %15, %16
  br i1 %17, label %18, label %20

18:                                               ; preds = %14
  %19 = load double, ptr %6, align 8, !tbaa !69
  br label %30

20:                                               ; preds = %14
  %21 = load double, ptr %4, align 8, !tbaa !69
  %22 = load double, ptr %5, align 8, !tbaa !69
  %23 = fcmp nsz ogt double %21, %22
  br i1 %23, label %24, label %26

24:                                               ; preds = %20
  %25 = load double, ptr %4, align 8, !tbaa !69
  br label %28

26:                                               ; preds = %20
  %27 = load double, ptr %5, align 8, !tbaa !69
  br label %28

28:                                               ; preds = %26, %24
  %29 = phi nsz double [ %25, %24 ], [ %27, %26 ]
  br label %30

30:                                               ; preds = %28, %18
  %31 = phi nsz double [ %19, %18 ], [ %29, %28 ]
  ret double %31
}

; Function Attrs: nounwind uwtable
define internal i32 @do_colorkey_pixel(ptr noundef %0, i32 noundef %1, i32 noundef %2, i32 noundef %3, float noundef %4, float noundef %5, i32 noundef %6, double noundef %7) #1 {
  %9 = alloca i32, align 4
  %10 = alloca ptr, align 8
  %11 = alloca i32, align 4
  %12 = alloca i32, align 4
  %13 = alloca i32, align 4
  %14 = alloca float, align 4
  %15 = alloca float, align 4
  %16 = alloca i32, align 4
  %17 = alloca double, align 8
  %18 = alloca double, align 8
  %19 = alloca double, align 8
  %20 = alloca double, align 8
  %21 = alloca double, align 8
  %22 = alloca i32, align 4
  store ptr %0, ptr %10, align 8, !tbaa !68
  store i32 %1, ptr %11, align 4, !tbaa !46
  store i32 %2, ptr %12, align 4, !tbaa !46
  store i32 %3, ptr %13, align 4, !tbaa !46
  store float %4, ptr %14, align 4, !tbaa !66
  store float %5, ptr %15, align 4, !tbaa !66
  store i32 %6, ptr %16, align 4, !tbaa !46
  store double %7, ptr %17, align 8, !tbaa !69
  call void @llvm.lifetime.start.p0(i64 8, ptr %18) #8
  call void @llvm.lifetime.start.p0(i64 8, ptr %19) #8
  call void @llvm.lifetime.start.p0(i64 8, ptr %20) #8
  call void @llvm.lifetime.start.p0(i64 8, ptr %21) #8
  %23 = load i32, ptr %11, align 4, !tbaa !46
  %24 = sitofp i32 %23 to double
  %25 = load double, ptr %17, align 8, !tbaa !69
  %26 = load ptr, ptr %10, align 8, !tbaa !68
  %27 = getelementptr inbounds i8, ptr %26, i64 0
  %28 = load i8, ptr %27, align 1, !tbaa !71
  %29 = zext i8 %28 to i32
  %30 = sitofp i32 %29 to double
  %31 = fneg nsz double %30
  %32 = call nsz double @llvm.fmuladd.f64(double %24, double %25, double %31)
  store double %32, ptr %18, align 8, !tbaa !69
  %33 = load i32, ptr %12, align 4, !tbaa !46
  %34 = sitofp i32 %33 to double
  %35 = load double, ptr %17, align 8, !tbaa !69
  %36 = load ptr, ptr %10, align 8, !tbaa !68
  %37 = getelementptr inbounds i8, ptr %36, i64 1
  %38 = load i8, ptr %37, align 1, !tbaa !71
  %39 = zext i8 %38 to i32
  %40 = sitofp i32 %39 to double
  %41 = fneg nsz double %40
  %42 = call nsz double @llvm.fmuladd.f64(double %34, double %35, double %41)
  store double %42, ptr %19, align 8, !tbaa !69
  %43 = load i32, ptr %13, align 4, !tbaa !46
  %44 = sitofp i32 %43 to double
  %45 = load double, ptr %17, align 8, !tbaa !69
  %46 = load ptr, ptr %10, align 8, !tbaa !68
  %47 = getelementptr inbounds i8, ptr %46, i64 2
  %48 = load i8, ptr %47, align 1, !tbaa !71
  %49 = zext i8 %48 to i32
  %50 = sitofp i32 %49 to double
  %51 = fneg nsz double %50
  %52 = call nsz double @llvm.fmuladd.f64(double %44, double %45, double %51)
  store double %52, ptr %20, align 8, !tbaa !69
  %53 = load double, ptr %18, align 8, !tbaa !69
  %54 = load double, ptr %18, align 8, !tbaa !69
  %55 = load double, ptr %19, align 8, !tbaa !69
  %56 = load double, ptr %19, align 8, !tbaa !69
  %57 = fmul nsz double %55, %56
  %58 = call nsz double @llvm.fmuladd.f64(double %53, double %54, double %57)
  %59 = load double, ptr %20, align 8, !tbaa !69
  %60 = load double, ptr %20, align 8, !tbaa !69
  %61 = call nsz double @llvm.fmuladd.f64(double %59, double %60, double %58)
  %62 = fdiv nsz double %61, 1.950750e+05
  %63 = call nsz double @llvm.sqrt.f64(double %62)
  store double %63, ptr %21, align 8, !tbaa !69
  %64 = load float, ptr %15, align 4, !tbaa !66
  %65 = fpext nsz float %64 to double
  %66 = fcmp nsz olt double %65, 1.000000e+04
  br i1 %66, label %67, label %80

67:                                               ; preds = %8
  %68 = load double, ptr %21, align 8, !tbaa !69
  %69 = load float, ptr %14, align 4, !tbaa !66
  %70 = fpext nsz float %69 to double
  %71 = fsub nsz double %68, %70
  %72 = load float, ptr %15, align 4, !tbaa !66
  %73 = fpext nsz float %72 to double
  %74 = fmul nsz double %71, %73
  %75 = call nsz double @av_clipd_c(double noundef %74, double noundef 0.000000e+00, double noundef 1.000000e+00) #10
  %76 = load i32, ptr %16, align 4, !tbaa !46
  %77 = sitofp i32 %76 to double
  %78 = fmul nsz double %75, %77
  %79 = fptosi double %78 to i32
  store i32 %79, ptr %9, align 4
  store i32 1, ptr %22, align 4
  br label %90

80:                                               ; preds = %8
  %81 = load double, ptr %21, align 8, !tbaa !69
  %82 = load float, ptr %14, align 4, !tbaa !66
  %83 = fpext nsz float %82 to double
  %84 = fcmp nsz ogt double %81, %83
  br i1 %84, label %85, label %87

85:                                               ; preds = %80
  %86 = load i32, ptr %16, align 4, !tbaa !46
  br label %88

87:                                               ; preds = %80
  br label %88

88:                                               ; preds = %87, %85
  %89 = phi i32 [ %86, %85 ], [ 0, %87 ]
  store i32 %89, ptr %9, align 4
  store i32 1, ptr %22, align 4
  br label %90

90:                                               ; preds = %88, %67
  call void @llvm.lifetime.end.p0(i64 8, ptr %21) #8
  call void @llvm.lifetime.end.p0(i64 8, ptr %20) #8
  call void @llvm.lifetime.end.p0(i64 8, ptr %19) #8
  call void @llvm.lifetime.end.p0(i64 8, ptr %18) #8
  %91 = load i32, ptr %9, align 4
  ret i32 %91
}

; Function Attrs: nounwind uwtable
define internal i32 @do_colorkey_slice8(ptr noundef %0, ptr noundef %1, i32 noundef %2, i32 noundef %3) #1 {
  %5 = alloca ptr, align 8
  %6 = alloca ptr, align 8
  %7 = alloca i32, align 4
  %8 = alloca i32, align 4
  %9 = alloca ptr, align 8
  %10 = alloca i32, align 4
  %11 = alloca i32, align 4
  %12 = alloca ptr, align 8
  %13 = alloca float, align 4
  %14 = alloca float, align 4
  %15 = alloca ptr, align 8
  %16 = alloca ptr, align 8
  %17 = alloca double, align 8
  %18 = alloca i32, align 4
  %19 = alloca i32, align 4
  %20 = alloca i32, align 4
  %21 = alloca ptr, align 8
  %22 = alloca i32, align 4
  %23 = alloca i32, align 4
  store ptr %0, ptr %5, align 8, !tbaa !23
  store ptr %1, ptr %6, align 8, !tbaa !64
  store i32 %2, ptr %7, align 4, !tbaa !46
  store i32 %3, ptr %8, align 4, !tbaa !46
  call void @llvm.lifetime.start.p0(i64 8, ptr %9) #8
  %24 = load ptr, ptr %6, align 8, !tbaa !64
  store ptr %24, ptr %9, align 8, !tbaa !9
  call void @llvm.lifetime.start.p0(i64 4, ptr %10) #8
  %25 = load ptr, ptr %9, align 8, !tbaa !9
  %26 = getelementptr inbounds nuw %struct.AVFrame, ptr %25, i32 0, i32 4
  %27 = load i32, ptr %26, align 4, !tbaa !40
  %28 = load i32, ptr %7, align 4, !tbaa !46
  %29 = mul nsw i32 %27, %28
  %30 = load i32, ptr %8, align 4, !tbaa !46
  %31 = sdiv i32 %29, %30
  store i32 %31, ptr %10, align 4, !tbaa !46
  call void @llvm.lifetime.start.p0(i64 4, ptr %11) #8
  %32 = load ptr, ptr %9, align 8, !tbaa !9
  %33 = getelementptr inbounds nuw %struct.AVFrame, ptr %32, i32 0, i32 4
  %34 = load i32, ptr %33, align 4, !tbaa !40
  %35 = load i32, ptr %7, align 4, !tbaa !46
  %36 = add nsw i32 %35, 1
  %37 = mul nsw i32 %34, %36
  %38 = load i32, ptr %8, align 4, !tbaa !46
  %39 = sdiv i32 %37, %38
  store i32 %39, ptr %11, align 4, !tbaa !46
  call void @llvm.lifetime.start.p0(i64 8, ptr %12) #8
  %40 = load ptr, ptr %5, align 8, !tbaa !23
  %41 = getelementptr inbounds nuw %struct.AVFilterContext, ptr %40, i32 0, i32 9
  %42 = load ptr, ptr %41, align 8, !tbaa !24
  store ptr %42, ptr %12, align 8, !tbaa !34
  call void @llvm.lifetime.start.p0(i64 4, ptr %13) #8
  %43 = load ptr, ptr %12, align 8, !tbaa !34
  %44 = getelementptr inbounds nuw %struct.ColorkeyContext, ptr %43, i32 0, i32 3
  %45 = load float, ptr %44, align 8, !tbaa !65
  store float %45, ptr %13, align 4, !tbaa !66
  call void @llvm.lifetime.start.p0(i64 4, ptr %14) #8
  %46 = load ptr, ptr %12, align 8, !tbaa !34
  %47 = getelementptr inbounds nuw %struct.ColorkeyContext, ptr %46, i32 0, i32 4
  %48 = load float, ptr %47, align 4, !tbaa !67
  %49 = fdiv nsz float 1.000000e+00, %48
  store float %49, ptr %14, align 4, !tbaa !66
  call void @llvm.lifetime.start.p0(i64 8, ptr %15) #8
  %50 = load ptr, ptr %12, align 8, !tbaa !34
  %51 = getelementptr inbounds nuw %struct.ColorkeyContext, ptr %50, i32 0, i32 2
  %52 = getelementptr inbounds [4 x i8], ptr %51, i64 0, i64 0
  store ptr %52, ptr %15, align 8, !tbaa !68
  call void @llvm.lifetime.start.p0(i64 8, ptr %16) #8
  %53 = load ptr, ptr %12, align 8, !tbaa !34
  %54 = getelementptr inbounds nuw %struct.ColorkeyContext, ptr %53, i32 0, i32 1
  %55 = getelementptr inbounds [4 x i8], ptr %54, i64 0, i64 0
  store ptr %55, ptr %16, align 8, !tbaa !68
  call void @llvm.lifetime.start.p0(i64 8, ptr %17) #8
  %56 = load ptr, ptr %12, align 8, !tbaa !34
  %57 = getelementptr inbounds nuw %struct.ColorkeyContext, ptr %56, i32 0, i32 5
  %58 = load double, ptr %57, align 8, !tbaa !57
  store double %58, ptr %17, align 8, !tbaa !69
  call void @llvm.lifetime.start.p0(i64 4, ptr %18) #8
  %59 = load ptr, ptr %12, align 8, !tbaa !34
  %60 = getelementptr inbounds nuw %struct.ColorkeyContext, ptr %59, i32 0, i32 7
  %61 = load i32, ptr %60, align 4, !tbaa !56
  store i32 %61, ptr %18, align 4, !tbaa !46
  call void @llvm.lifetime.start.p0(i64 4, ptr %19) #8
  %62 = load i32, ptr %10, align 4, !tbaa !46
  store i32 %62, ptr %19, align 4, !tbaa !46
  br label %63

63:                                               ; preds = %144, %4
  %64 = load i32, ptr %19, align 4, !tbaa !46
  %65 = load i32, ptr %11, align 4, !tbaa !46
  %66 = icmp slt i32 %64, %65
  br i1 %66, label %68, label %67

67:                                               ; preds = %63
  store i32 2, ptr %20, align 4
  call void @llvm.lifetime.end.p0(i64 4, ptr %19) #8
  br label %147

68:                                               ; preds = %63
  call void @llvm.lifetime.start.p0(i64 8, ptr %21) #8
  %69 = load ptr, ptr %9, align 8, !tbaa !9
  %70 = getelementptr inbounds nuw %struct.AVFrame, ptr %69, i32 0, i32 0
  %71 = getelementptr inbounds [8 x ptr], ptr %70, i64 0, i64 0
  %72 = load ptr, ptr %71, align 8, !tbaa !68
  %73 = load i32, ptr %19, align 4, !tbaa !46
  %74 = load ptr, ptr %9, align 8, !tbaa !9
  %75 = getelementptr inbounds nuw %struct.AVFrame, ptr %74, i32 0, i32 1
  %76 = getelementptr inbounds [8 x i32], ptr %75, i64 0, i64 0
  %77 = load i32, ptr %76, align 8, !tbaa !46
  %78 = mul nsw i32 %73, %77
  %79 = sext i32 %78 to i64
  %80 = getelementptr inbounds i8, ptr %72, i64 %79
  store ptr %80, ptr %21, align 8, !tbaa !68
  call void @llvm.lifetime.start.p0(i64 4, ptr %22) #8
  store i32 0, ptr %22, align 4, !tbaa !46
  br label %81

81:                                               ; preds = %140, %68
  %82 = load i32, ptr %22, align 4, !tbaa !46
  %83 = load ptr, ptr %9, align 8, !tbaa !9
  %84 = getelementptr inbounds nuw %struct.AVFrame, ptr %83, i32 0, i32 3
  %85 = load i32, ptr %84, align 8, !tbaa !70
  %86 = icmp slt i32 %82, %85
  br i1 %86, label %88, label %87

87:                                               ; preds = %81
  store i32 5, ptr %20, align 4
  call void @llvm.lifetime.end.p0(i64 4, ptr %22) #8
  br label %143

88:                                               ; preds = %81
  call void @llvm.lifetime.start.p0(i64 4, ptr %23) #8
  %89 = load i32, ptr %22, align 4, !tbaa !46
  %90 = mul nsw i32 %89, 4
  store i32 %90, ptr %23, align 4, !tbaa !46
  %91 = load ptr, ptr %15, align 8, !tbaa !68
  %92 = load ptr, ptr %21, align 8, !tbaa !68
  %93 = load i32, ptr %23, align 4, !tbaa !46
  %94 = load ptr, ptr %16, align 8, !tbaa !68
  %95 = getelementptr inbounds i8, ptr %94, i64 0
  %96 = load i8, ptr %95, align 1, !tbaa !71
  %97 = zext i8 %96 to i32
  %98 = add nsw i32 %93, %97
  %99 = sext i32 %98 to i64
  %100 = getelementptr inbounds i8, ptr %92, i64 %99
  %101 = load i8, ptr %100, align 1, !tbaa !71
  %102 = zext i8 %101 to i32
  %103 = load ptr, ptr %21, align 8, !tbaa !68
  %104 = load i32, ptr %23, align 4, !tbaa !46
  %105 = load ptr, ptr %16, align 8, !tbaa !68
  %106 = getelementptr inbounds i8, ptr %105, i64 1
  %107 = load i8, ptr %106, align 1, !tbaa !71
  %108 = zext i8 %107 to i32
  %109 = add nsw i32 %104, %108
  %110 = sext i32 %109 to i64
  %111 = getelementptr inbounds i8, ptr %103, i64 %110
  %112 = load i8, ptr %111, align 1, !tbaa !71
  %113 = zext i8 %112 to i32
  %114 = load ptr, ptr %21, align 8, !tbaa !68
  %115 = load i32, ptr %23, align 4, !tbaa !46
  %116 = load ptr, ptr %16, align 8, !tbaa !68
  %117 = getelementptr inbounds i8, ptr %116, i64 2
  %118 = load i8, ptr %117, align 1, !tbaa !71
  %119 = zext i8 %118 to i32
  %120 = add nsw i32 %115, %119
  %121 = sext i32 %120 to i64
  %122 = getelementptr inbounds i8, ptr %114, i64 %121
  %123 = load i8, ptr %122, align 1, !tbaa !71
  %124 = zext i8 %123 to i32
  %125 = load float, ptr %13, align 4, !tbaa !66
  %126 = load float, ptr %14, align 4, !tbaa !66
  %127 = load i32, ptr %18, align 4, !tbaa !46
  %128 = load double, ptr %17, align 8, !tbaa !69
  %129 = call i32 @do_colorkey_pixel(ptr noundef %91, i32 noundef %102, i32 noundef %113, i32 noundef %124, float noundef %125, float noundef %126, i32 noundef %127, double noundef %128)
  %130 = trunc i32 %129 to i8
  %131 = load ptr, ptr %21, align 8, !tbaa !68
  %132 = load i32, ptr %23, align 4, !tbaa !46
  %133 = load ptr, ptr %16, align 8, !tbaa !68
  %134 = getelementptr inbounds i8, ptr %133, i64 3
  %135 = load i8, ptr %134, align 1, !tbaa !71
  %136 = zext i8 %135 to i32
  %137 = add nsw i32 %132, %136
  %138 = sext i32 %137 to i64
  %139 = getelementptr inbounds i8, ptr %131, i64 %138
  store i8 %130, ptr %139, align 1, !tbaa !71
  call void @llvm.lifetime.end.p0(i64 4, ptr %23) #8
  br label %140

140:                                              ; preds = %88
  %141 = load i32, ptr %22, align 4, !tbaa !46
  %142 = add nsw i32 %141, 1
  store i32 %142, ptr %22, align 4, !tbaa !46
  br label %81, !llvm.loop !72

143:                                              ; preds = %87
  call void @llvm.lifetime.end.p0(i64 8, ptr %21) #8
  br label %144

144:                                              ; preds = %143
  %145 = load i32, ptr %19, align 4, !tbaa !46
  %146 = add nsw i32 %145, 1
  store i32 %146, ptr %19, align 4, !tbaa !46
  br label %63, !llvm.loop !74

147:                                              ; preds = %67
  store i32 1, ptr %20, align 4
  call void @llvm.lifetime.end.p0(i64 4, ptr %18) #8
  call void @llvm.lifetime.end.p0(i64 8, ptr %17) #8
  call void @llvm.lifetime.end.p0(i64 8, ptr %16) #8
  call void @llvm.lifetime.end.p0(i64 8, ptr %15) #8
  call void @llvm.lifetime.end.p0(i64 4, ptr %14) #8
  call void @llvm.lifetime.end.p0(i64 4, ptr %13) #8
  call void @llvm.lifetime.end.p0(i64 8, ptr %12) #8
  call void @llvm.lifetime.end.p0(i64 4, ptr %11) #8
  call void @llvm.lifetime.end.p0(i64 4, ptr %10) #8
  call void @llvm.lifetime.end.p0(i64 8, ptr %9) #8
  ret i32 0
}