; Function Attrs: nofree norecurse nosync nounwind memory(readwrite, inaccessiblemem: none) uwtable
define internal noundef i32 @do_colorkey_slice8(ptr noundef readonly captures(none) %0, ptr noundef readonly captures(none) %1, i32 noundef %2, i32 noundef %3) #5 {
  %5 = getelementptr inbounds nuw i8, ptr %1, i64 108
  %6 = load i32, ptr %5, align 4, !tbaa !33
  %7 = mul nsw i32 %6, %2
  %8 = sdiv i32 %7, %3
  %9 = add nsw i32 %2, 1
  %10 = mul nsw i32 %6, %9
  %11 = sdiv i32 %10, %3
  %12 = getelementptr inbounds nuw i8, ptr %0, i64 72
  %13 = load ptr, ptr %12, align 8, !tbaa !19
  %14 = getelementptr inbounds nuw i8, ptr %13, i64 12
  %15 = getelementptr inbounds nuw i8, ptr %13, i64 8
  %16 = getelementptr inbounds nuw i8, ptr %13, i64 24
  %17 = load double, ptr %16, align 8, !tbaa !49
  %18 = getelementptr inbounds nuw i8, ptr %13, i64 36
  %19 = load i32, ptr %18, align 4, !tbaa !48
  %20 = icmp slt i32 %8, %11
  br i1 %20, label %.lr.ph45, label %._crit_edge46

.lr.ph45:                                         ; preds = %4
  %21 = getelementptr inbounds nuw i8, ptr %13, i64 20
  %22 = load float, ptr %21, align 4, !tbaa !55
  %23 = fdiv nsz float 1.000000e+00, %22
  %24 = getelementptr inbounds nuw i8, ptr %13, i64 16
  %25 = load float, ptr %24, align 8, !tbaa !56
  %26 = getelementptr inbounds nuw i8, ptr %1, i64 64
  %27 = getelementptr inbounds nuw i8, ptr %1, i64 104
  %28 = getelementptr inbounds nuw i8, ptr %13, i64 9
  %29 = getelementptr inbounds nuw i8, ptr %13, i64 10
  %30 = getelementptr inbounds nuw i8, ptr %13, i64 13
  %31 = getelementptr inbounds nuw i8, ptr %13, i64 14
  %32 = fcmp nsz olt float %23, 1.000000e+04
  %33 = fpext nsz float %25 to double
  %34 = fpext nsz float %23 to double
  %35 = sitofp i32 %19 to double
  %36 = getelementptr inbounds nuw i8, ptr %13, i64 11
  %37 = load i32, ptr %27, align 8, !tbaa !57
  %38 = icmp sgt i32 %37, 0
  br i1 %38, label %.lr.ph45.split.preheader, label %._crit_edge46

.lr.ph45.split.preheader:                         ; preds = %.lr.ph45
  %39 = trunc i32 %19 to i8
  br label %.lr.ph45.split

._crit_edge46:                                    ; preds = %._crit_edge, %.lr.ph45, %4
  ret i32 0

.lr.ph45.split:                                   ; preds = %.lr.ph45.split.preheader, %._crit_edge
  %40 = phi i32 [ %102, %._crit_edge ], [ %37, %.lr.ph45.split.preheader ]
  %.043 = phi i32 [ %103, %._crit_edge ], [ %8, %.lr.ph45.split.preheader ]
  %41 = load ptr, ptr %1, align 8, !tbaa !58
  %42 = load i32, ptr %26, align 8, !tbaa !59
  %43 = mul nsw i32 %42, %.043
  %44 = sext i32 %43 to i64
  %45 = getelementptr inbounds i8, ptr %41, i64 %44
  %46 = icmp sgt i32 %40, 0
  br i1 %46, label %.lr.ph, label %._crit_edge

.lr.ph:                                           ; preds = %.lr.ph45.split
  br i1 %32, label %do_colorkey_pixel.exit.us, label %do_colorkey_pixel.exit

do_colorkey_pixel.exit.us:                        ; preds = %.lr.ph, %do_colorkey_pixel.exit.us
  %.04142.us = phi i32 [ %99, %do_colorkey_pixel.exit.us ], [ 0, %.lr.ph ]
  %47 = shl nsw i32 %.04142.us, 2
  %48 = load i8, ptr %15, align 1, !tbaa !60
  %49 = zext i8 %48 to i32
  %50 = add nuw nsw i32 %47, %49
  %51 = zext nneg i32 %50 to i64
  %52 = getelementptr inbounds nuw i8, ptr %45, i64 %51
  %53 = load i8, ptr %52, align 1, !tbaa !60
  %54 = load i8, ptr %28, align 1, !tbaa !60
  %55 = zext i8 %54 to i32
  %56 = add nuw nsw i32 %47, %55
  %57 = zext nneg i32 %56 to i64
  %58 = getelementptr inbounds nuw i8, ptr %45, i64 %57
  %59 = load i8, ptr %58, align 1, !tbaa !60
  %60 = load i8, ptr %29, align 1, !tbaa !60
  %61 = zext i8 %60 to i32
  %62 = add nuw nsw i32 %47, %61
  %63 = zext nneg i32 %62 to i64
  %64 = getelementptr inbounds nuw i8, ptr %45, i64 %63
  %65 = load i8, ptr %64, align 1, !tbaa !60
  %66 = uitofp i8 %53 to double
  %67 = load i8, ptr %14, align 1, !tbaa !60
  %68 = uitofp i8 %67 to double
  %69 = fneg nsz double %68
  %70 = tail call nsz double @llvm.fmuladd.f64(double %66, double %17, double %69)
  %71 = uitofp i8 %59 to double
  %72 = load i8, ptr %30, align 1, !tbaa !60
  %73 = uitofp i8 %72 to double
  %74 = fneg nsz double %73
  %75 = tail call nsz double @llvm.fmuladd.f64(double %71, double %17, double %74)
  %76 = uitofp i8 %65 to double
  %77 = load i8, ptr %31, align 1, !tbaa !60
  %78 = uitofp i8 %77 to double
  %79 = fneg nsz double %78
  %80 = tail call nsz double @llvm.fmuladd.f64(double %76, double %17, double %79)
  %81 = fmul nsz double %75, %75
  %82 = tail call nsz double @llvm.fmuladd.f64(double %70, double %70, double %81)
  %83 = tail call nsz double @llvm.fmuladd.f64(double %80, double %80, double %82)
  %84 = fdiv nsz double %83, 1.950750e+05
  %85 = tail call nsz double @llvm.sqrt.f64(double %84)
  %86 = fsub nsz double %85, %33
  %87 = fmul nsz double %86, %34
  %88 = fcmp nsz ogt double %87, 0.000000e+00
  %89 = select nsz i1 %88, double %87, double 0.000000e+00
  %90 = fcmp nsz ogt double %89, 1.000000e+00
  %..i.i.us = select nsz i1 %90, double 1.000000e+00, double %89
  %91 = fmul nsz double %..i.i.us, %35
  %92 = fptosi double %91 to i32
  %93 = trunc i32 %92 to i8
  %94 = load i8, ptr %36, align 1, !tbaa !60
  %95 = zext i8 %94 to i32
  %96 = add nuw nsw i32 %47, %95
  %97 = zext nneg i32 %96 to i64
  %98 = getelementptr inbounds nuw i8, ptr %45, i64 %97
  store i8 %93, ptr %98, align 1, !tbaa !60
  %99 = add nuw nsw i32 %.04142.us, 1
  %100 = load i32, ptr %27, align 8, !tbaa !57
  %101 = icmp slt i32 %99, %100
  br i1 %101, label %do_colorkey_pixel.exit.us, label %._crit_edge, !llvm.loop !61

._crit_edge:                                      ; preds = %do_colorkey_pixel.exit, %do_colorkey_pixel.exit.us, %.lr.ph45.split
  %102 = phi i32 [ %40, %.lr.ph45.split ], [ %100, %do_colorkey_pixel.exit.us ], [ %151, %do_colorkey_pixel.exit ]
  %103 = add nsw i32 %.043, 1
  %exitcond.not = icmp eq i32 %103, %11
  br i1 %exitcond.not, label %._crit_edge46, label %.lr.ph45.split, !llvm.loop !63

do_colorkey_pixel.exit:                           ; preds = %.lr.ph, %do_colorkey_pixel.exit
  %.04142 = phi i32 [ %150, %do_colorkey_pixel.exit ], [ 0, %.lr.ph ]
  %104 = shl nsw i32 %.04142, 2
  %105 = load i8, ptr %15, align 1, !tbaa !60
  %106 = zext i8 %105 to i32
  %107 = add nuw nsw i32 %104, %106
  %108 = zext nneg i32 %107 to i64
  %109 = getelementptr inbounds nuw i8, ptr %45, i64 %108
  %110 = load i8, ptr %109, align 1, !tbaa !60
  %111 = load i8, ptr %28, align 1, !tbaa !60
  %112 = zext i8 %111 to i32
  %113 = add nuw nsw i32 %104, %112
  %114 = zext nneg i32 %113 to i64
  %115 = getelementptr inbounds nuw i8, ptr %45, i64 %114
  %116 = load i8, ptr %115, align 1, !tbaa !60
  %117 = load i8, ptr %29, align 1, !tbaa !60
  %118 = zext i8 %117 to i32
  %119 = add nuw nsw i32 %104, %118
  %120 = zext nneg i32 %119 to i64
  %121 = getelementptr inbounds nuw i8, ptr %45, i64 %120
  %122 = load i8, ptr %121, align 1, !tbaa !60
  %123 = uitofp i8 %110 to double
  %124 = load i8, ptr %14, align 1, !tbaa !60
  %125 = uitofp i8 %124 to double
  %126 = fneg nsz double %125
  %127 = tail call nsz double @llvm.fmuladd.f64(double %123, double %17, double %126)
  %128 = uitofp i8 %116 to double
  %129 = load i8, ptr %30, align 1, !tbaa !60
  %130 = uitofp i8 %129 to double
  %131 = fneg nsz double %130
  %132 = tail call nsz double @llvm.fmuladd.f64(double %128, double %17, double %131)
  %133 = uitofp i8 %122 to double
  %134 = load i8, ptr %31, align 1, !tbaa !60
  %135 = uitofp i8 %134 to double
  %136 = fneg nsz double %135
  %137 = tail call nsz double @llvm.fmuladd.f64(double %133, double %17, double %136)
  %138 = fmul nsz double %132, %132
  %139 = tail call nsz double @llvm.fmuladd.f64(double %127, double %127, double %138)
  %140 = tail call nsz double @llvm.fmuladd.f64(double %137, double %137, double %139)
  %141 = fdiv nsz double %140, 1.950750e+05
  %142 = tail call nsz double @llvm.sqrt.f64(double %141)
  %143 = fcmp nsz ogt double %142, %33
  %144 = select i1 %143, i8 %39, i8 0
  %145 = load i8, ptr %36, align 1, !tbaa !60
  %146 = zext i8 %145 to i32
  %147 = add nuw nsw i32 %104, %146
  %148 = zext nneg i32 %147 to i64
  %149 = getelementptr inbounds nuw i8, ptr %45, i64 %148
  store i8 %144, ptr %149, align 1, !tbaa !60
  %150 = add nuw nsw i32 %.04142, 1
  %151 = load i32, ptr %27, align 8, !tbaa !57
  %152 = icmp slt i32 %150, %151
  br i1 %152, label %do_colorkey_pixel.exit, label %._crit_edge, !llvm.loop !61
}